; Function Attrs: mustprogress uwtable
define void @_ZN6google8protobuf13SourceContextC2EPNS0_5ArenaERKS1_(ptr noundef nonnull align 8 dereferenceable(32) %this, ptr noundef %arena, ptr noundef nonnull align 8 dereferenceable(32) %from) unnamed_addr #3 align 2 personality ptr @__gxx_personality_v0 {
entry:
  %_internal_metadata_.i.i = getelementptr inbounds i8, ptr %this, i64 8
  %0 = ptrtoint ptr %arena to i64
  store i64 %0, ptr %_internal_metadata_.i.i, align 8
  store ptr getelementptr inbounds ({ [13 x ptr] }, ptr @_ZTVN6google8protobuf13SourceContextE, i64 0, i32 0, i64 2), ptr %this, align 8
  %_internal_metadata_2 = getelementptr inbounds i8, ptr %from, i64 8
  %1 = load i64, ptr %_internal_metadata_2, align 8
  %and.i21 = and i64 %1, 1
  %tobool.i22.not = icmp eq i64 %and.i21, 0
  br i1 %tobool.i22.not, label %invoke.cont3, label %if.then.i15

if.then.i15:                                      ; preds = %entry
  %and.i = and i64 %1, -2
  %2 = inttoptr i64 %and.i to ptr
  %unknown_fields.i = getelementptr inbounds i8, ptr %2, i64 8
  tail call void @_ZN6google8protobuf8internal16InternalMetadata11DoMergeFromINS0_15UnknownFieldSetEEEvRKT_(ptr noundef nonnull align 8 dereferenceable(8) %_internal_metadata_.i.i, ptr noundef nonnull align 8 dereferenceable(24) %unknown_fields.i)
  br label %invoke.cont3

invoke.cont3:                                     ; preds = %if.then.i15, %entry
  %3 = getelementptr inbounds i8, ptr %from, i64 16
  %4 = load ptr, ptr %3, align 8
  %5 = ptrtoint ptr %4 to i64
  %and.i.i.i = and i64 %5, 3
  %cmp.i.i.i = icmp eq i64 %and.i.i.i, 0
  br i1 %cmp.i.i.i, label %_ZN6google8protobuf13SourceContext5Impl_C2ENS0_8internal18InternalVisibilityEPNS0_5ArenaERKS2_.exit, label %cond.false.i.i

cond.false.i.i:                                   ; preds = %invoke.cont3
  %call2.i.i4 = tail call ptr @_ZNK6google8protobuf8internal15TaggedStringPtr9ForceCopyEPNS0_5ArenaE(ptr noundef nonnull align 8 dereferenceable(8) %3, ptr noundef %arena)
  br label %_ZN6google8protobuf13SourceContext5Impl_C2ENS0_8internal18InternalVisibilityEPNS0_5ArenaERKS2_.exit

_ZN6google8protobuf13SourceContext5Impl_C2ENS0_8internal18InternalVisibilityEPNS0_5ArenaERKS2_.exit: ; preds = %cond.false.i.i, %invoke.cont3
  %retval.sroa.0.0.i.i = phi ptr [ %4, %invoke.cont3 ], [ %call2.i.i4, %cond.false.i.i ]
  %6 = getelementptr inbounds i8, ptr %this, i64 16
  store ptr %retval.sroa.0.0.i.i, ptr %6, align 8
  %_cached_size_.i = getelementptr inbounds i8, ptr %this, i64 24
  store i32 0, ptr %_cached_size_.i, align 8
  ret void
}